; Function Attrs: mustprogress nounwind uwtable
define hidden { i32, i64 } @_ZN6hermes2vm8objectIsEPvRNS0_7RuntimeENS0_10NativeArgsE(ptr readnone captures(none) %0, ptr nonnull readnone align 8 captures(none) %runtime, ptr noundef readonly captures(none) %args) #0 {
entry:
  %argCount_.i = getelementptr inbounds nuw i8, ptr %args, i64 8
  %1 = load i32, ptr %argCount_.i, align 8
  %cmp.i.not = icmp eq i32 %1, 0
  br i1 %cmp.i.not, label %_ZNK6hermes2vm10NativeArgs6getArgEj.exit7, label %_ZNK6hermes2vm10NativeArgs6getArgEj.exit

_ZNK6hermes2vm10NativeArgs6getArgEj.exit:         ; preds = %entry
  %2 = load ptr, ptr %args, align 8, !noalias !62
  %incdec.ptr.i.i.i = getelementptr inbounds i8, ptr %2, i64 -8
  %retval.sroa.0.0.copyload.i = load i64, ptr %incdec.ptr.i.i.i, align 8
  %cmp.i2.not = icmp eq i32 %1, 1
  br i1 %cmp.i2.not, label %_ZNK6hermes2vm10NativeArgs6getArgEj.exit7, label %cond.true.i4

cond.true.i4:                                     ; preds = %_ZNK6hermes2vm10NativeArgs6getArgEj.exit
  %3 = load ptr, ptr %args, align 8, !noalias !65
  %incdec.ptr.i.i.i5 = getelementptr inbounds i8, ptr %3, i64 -16
  %retval.sroa.0.0.copyload.i6 = load i64, ptr %incdec.ptr.i.i.i5, align 8
  br label %_ZNK6hermes2vm10NativeArgs6getArgEj.exit7

_ZNK6hermes2vm10NativeArgs6getArgEj.exit7:        ; preds = %entry, %_ZNK6hermes2vm10NativeArgs6getArgEj.exit, %cond.true.i4
  %retval.sroa.0.0.i10 = phi i64 [ %retval.sroa.0.0.copyload.i, %cond.true.i4 ], [ %retval.sroa.0.0.copyload.i, %_ZNK6hermes2vm10NativeArgs6getArgEj.exit ], [ -1688849860263936, %entry ]
  %retval.sroa.0.0.i3 = phi i64 [ %retval.sroa.0.0.copyload.i6, %cond.true.i4 ], [ -1688849860263936, %_ZNK6hermes2vm10NativeArgs6getArgEj.exit ], [ -1688849860263936, %entry ]
  %call7 = tail call noundef zeroext i1 @_ZN6hermes2vm11isSameValueENS0_11HermesValueES1_(i64 %retval.sroa.0.0.i10, i64 %retval.sroa.0.0.i3) #8
  %conv.i = zext i1 %call7 to i64
  %or.i.i = or disjoint i64 %conv.i, -1407374883553280
  %.fca.1.insert = insertvalue { i32, i64 } { i32 1, i64 poison }, i64 %or.i.i, 1
  ret { i32, i64 } %.fca.1.insert
}